; Function Attrs: nounwind uwtable
define hidden ptr @mi_heap_recalloc_aligned(ptr noundef %0, ptr noundef %1, i64 noundef %2, i64 noundef %3, i64 noundef %4) local_unnamed_addr #0 {
  %.not = icmp eq i64 %2, 1
  br i1 %.not, label %10, label %6

6:                                                ; preds = %5
  %7 = tail call { i64, i1 } @llvm.umul.with.overflow.i64(i64 range(i64 2, 1) %2, i64 %3)
  %8 = extractvalue { i64, i1 } %7, 1
  %9 = extractvalue { i64, i1 } %7, 0
  br i1 %8, label %mi_count_size_overflow.exit, label %10, !prof !16

10:                                               ; preds = %6, %5
  %storemerge.i.ph = phi i64 [ %3, %5 ], [ %9, %6 ]
  %11 = icmp ult i64 %4, 9
  br i1 %11, label %12, label %14

12:                                               ; preds = %10
  %13 = tail call ptr @_mi_heap_realloc_zero(ptr noundef %0, ptr noundef %1, i64 noundef %storemerge.i.ph, i1 noundef zeroext true) #8
  br label %mi_count_size_overflow.exit

14:                                               ; preds = %10
  %15 = ptrtoint ptr %1 to i64
  %16 = urem i64 %15, %4
  %17 = tail call fastcc ptr @mi_heap_realloc_zero_aligned_at(ptr noundef %0, ptr noundef %1, i64 noundef %storemerge.i.ph, i64 noundef %4, i64 noundef %16, i1 noundef zeroext true) #9
  br label %mi_count_size_overflow.exit

mi_count_size_overflow.exit:                      ; preds = %14, %12, %6
  %.0 = phi ptr [ null, %6 ], [ %13, %12 ], [ %17, %14 ]
  ret ptr %.0
}